target datalayout = "e-m:e-p270:32:32-p271:32:32-p272:64:64-i64:64-i128:128-f80:128-n8:16:32:64-S128"
target triple = "x86_64-pc-linux-gnu"

%struct.PatternInfoArray = type { ptr, i64 }
%struct.PatternInfo = type { ptr, ptr, ptr, ptr, i8, i8, i8 }

@.str.81 = private unnamed_addr constant [1 x i8] zeroinitializer, align 1
@.str.166 = private unnamed_addr constant [8 x i8] c"\0AVALUES\00", align 1
@.str.168 = private unnamed_addr constant [2 x i8] c",\00", align 1
@.str.207 = private unnamed_addr constant [18 x i8] c"%s\0A(%d::INTEGER, \00", align 1
@.str.208 = private unnamed_addr constant [5 x i8] c"NULL\00", align 1
@.str.209 = private unnamed_addr constant [9 x i8] c"::TEXT, \00", align 1
@.str.210 = private unnamed_addr constant [22 x i8] c"::TEXT, true::BOOLEAN\00", align 1
@.str.211 = private unnamed_addr constant [23 x i8] c"::TEXT, false::BOOLEAN\00", align 1
@.str.212 = private unnamed_addr constant [16 x i8] c", true::BOOLEAN\00", align 1
@.str.213 = private unnamed_addr constant [17 x i8] c", false::BOOLEAN\00", align 1
@.str.214 = private unnamed_addr constant [100 x i8] c"\0ASELECT NULL::INTEGER, NULL::TEXT, NULL::TEXT, NULL::TEXT, NULL::BOOLEAN, NULL::BOOLEAN WHERE false\00", align 1

; Function Attrs: nounwind uwtable
define internal void @append_rel_pattern_raw_cte(ptr noundef %0, ptr noundef %1, ptr noundef %2) #0 {
  %4 = alloca ptr, align 8
  %5 = alloca ptr, align 8
  %6 = alloca ptr, align 8
  %7 = alloca i32, align 4
  %8 = alloca ptr, align 8
  %9 = alloca i8, align 1
  %10 = alloca ptr, align 8
  store ptr %0, ptr %4, align 8
  store ptr %1, ptr %5, align 8
  store ptr %2, ptr %6, align 8
  call void @llvm.lifetime.start.p0(i64 4, ptr %7) #10
  call void @llvm.lifetime.start.p0(i64 8, ptr %8) #10
  call void @llvm.lifetime.start.p0(i64 1, ptr %9) #10
  store ptr @.str.81, ptr %8, align 8
  store i8 0, ptr %9, align 1
  store i32 0, ptr %7, align 4
  br label %11

11:                                               ; preds = %93, %3
  %12 = load i32, ptr %7, align 4
  %13 = sext i32 %12 to i64
  %14 = load ptr, ptr %5, align 8
  %15 = getelementptr inbounds nuw %struct.PatternInfoArray, ptr %14, i32 0, i32 1
  %16 = load i64, ptr %15, align 8
  %17 = icmp ult i64 %13, %16
  br i1 %17, label %18, label %96

18:                                               ; preds = %11
  call void @llvm.lifetime.start.p0(i64 8, ptr %10) #10
  %19 = load ptr, ptr %5, align 8
  %20 = getelementptr inbounds nuw %struct.PatternInfoArray, ptr %19, i32 0, i32 0
  %21 = load ptr, ptr %20, align 8
  %22 = load i32, ptr %7, align 4
  %23 = sext i32 %22 to i64
  %24 = getelementptr inbounds %struct.PatternInfo, ptr %21, i64 %23
  store ptr %24, ptr %10, align 8
  %25 = load i8, ptr %9, align 1, !range !6, !noundef !7
  %26 = trunc i8 %25 to i1
  br i1 %26, label %29, label %27

27:                                               ; preds = %18
  %28 = load ptr, ptr %4, align 8
  call void @appendPQExpBufferStr(ptr noundef %28, ptr noundef @.str.166)
  br label %29

29:                                               ; preds = %27, %18
  store i8 1, ptr %9, align 1
  %30 = load ptr, ptr %4, align 8
  %31 = load ptr, ptr %8, align 8
  %32 = load i32, ptr %7, align 4
  call void (ptr, ptr, ...) @appendPQExpBuffer(ptr noundef %30, ptr noundef @.str.207, ptr noundef %31, i32 noundef %32)
  %33 = load ptr, ptr %10, align 8
  %34 = getelementptr inbounds nuw %struct.PatternInfo, ptr %33, i32 0, i32 1
  %35 = load ptr, ptr %34, align 8
  %36 = icmp eq ptr %35, null
  br i1 %36, label %37, label %39

37:                                               ; preds = %29
  %38 = load ptr, ptr %4, align 8
  call void @appendPQExpBufferStr(ptr noundef %38, ptr noundef @.str.208)
  br label %45

39:                                               ; preds = %29
  %40 = load ptr, ptr %4, align 8
  %41 = load ptr, ptr %10, align 8
  %42 = getelementptr inbounds nuw %struct.PatternInfo, ptr %41, i32 0, i32 1
  %43 = load ptr, ptr %42, align 8
  %44 = load ptr, ptr %6, align 8
  call void @appendStringLiteralConn(ptr noundef %40, ptr noundef %43, ptr noundef %44)
  br label %45

45:                                               ; preds = %39, %37
  %46 = load ptr, ptr %4, align 8
  call void @appendPQExpBufferStr(ptr noundef %46, ptr noundef @.str.209)
  %47 = load ptr, ptr %10, align 8
  %48 = getelementptr inbounds nuw %struct.PatternInfo, ptr %47, i32 0, i32 2
  %49 = load ptr, ptr %48, align 8
  %50 = icmp eq ptr %49, null
  br i1 %50, label %51, label %53

51:                                               ; preds = %45
  %52 = load ptr, ptr %4, align 8
  call void @appendPQExpBufferStr(ptr noundef %52, ptr noundef @.str.208)
  br label %59

53:                                               ; preds = %45
  %54 = load ptr, ptr %4, align 8
  %55 = load ptr, ptr %10, align 8
  %56 = getelementptr inbounds nuw %struct.PatternInfo, ptr %55, i32 0, i32 2
  %57 = load ptr, ptr %56, align 8
  %58 = load ptr, ptr %6, align 8
  call void @appendStringLiteralConn(ptr noundef %54, ptr noundef %57, ptr noundef %58)
  br label %59

59:                                               ; preds = %53, %51
  %60 = load ptr, ptr %4, align 8
  call void @appendPQExpBufferStr(ptr noundef %60, ptr noundef @.str.209)
  %61 = load ptr, ptr %10, align 8
  %62 = getelementptr inbounds nuw %struct.PatternInfo, ptr %61, i32 0, i32 3
  %63 = load ptr, ptr %62, align 8
  %64 = icmp eq ptr %63, null
  br i1 %64, label %65, label %67

65:                                               ; preds = %59
  %66 = load ptr, ptr %4, align 8
  call void @appendPQExpBufferStr(ptr noundef %66, ptr noundef @.str.208)
  br label %73

67:                                               ; preds = %59
  %68 = load ptr, ptr %4, align 8
  %69 = load ptr, ptr %10, align 8
  %70 = getelementptr inbounds nuw %struct.PatternInfo, ptr %69, i32 0, i32 3
  %71 = load ptr, ptr %70, align 8
  %72 = load ptr, ptr %6, align 8
  call void @appendStringLiteralConn(ptr noundef %68, ptr noundef %71, ptr noundef %72)
  br label %73

73:                                               ; preds = %67, %65
  %74 = load ptr, ptr %10, align 8
  %75 = getelementptr inbounds nuw %struct.PatternInfo, ptr %74, i32 0, i32 4
  %76 = load i8, ptr %75, align 8, !range !6, !noundef !7
  %77 = trunc i8 %76 to i1
  br i1 %77, label %78, label %80

78:                                               ; preds = %73
  %79 = load ptr, ptr %4, align 8
  call void @appendPQExpBufferStr(ptr noundef %79, ptr noundef @.str.210)
  br label %82

80:                                               ; preds = %73
  %81 = load ptr, ptr %4, align 8
  call void @appendPQExpBufferStr(ptr noundef %81, ptr noundef @.str.211)
  br label %82

82:                                               ; preds = %80, %78
  %83 = load ptr, ptr %10, align 8
  %84 = getelementptr inbounds nuw %struct.PatternInfo, ptr %83, i32 0, i32 5
  %85 = load i8, ptr %84, align 1, !range !6, !noundef !7
  %86 = trunc i8 %85 to i1
  br i1 %86, label %87, label %89

87:                                               ; preds = %82
  %88 = load ptr, ptr %4, align 8
  call void @appendPQExpBufferStr(ptr noundef %88, ptr noundef @.str.212)
  br label %91

89:                                               ; preds = %82
  %90 = load ptr, ptr %4, align 8
  call void @appendPQExpBufferStr(ptr noundef %90, ptr noundef @.str.213)
  br label %91

91:                                               ; preds = %89, %87
  %92 = load ptr, ptr %4, align 8
  call void @appendPQExpBufferChar(ptr noundef %92, i8 noundef signext 41)
  store ptr @.str.168, ptr %8, align 8
  call void @llvm.lifetime.end.p0(i64 8, ptr %10) #10
  br label %93

93:                                               ; preds = %91
  %94 = load i32, ptr %7, align 4
  %95 = add i32 %94, 1
  store i32 %95, ptr %7, align 4
  br label %11, !llvm.loop !17

96:                                               ; preds = %11
  %97 = load i8, ptr %9, align 1, !range !6, !noundef !7
  %98 = trunc i8 %97 to i1
  br i1 %98, label %101, label %99

99:                                               ; preds = %96
  %100 = load ptr, ptr %4, align 8
  call void @appendPQExpBufferStr(ptr noundef %100, ptr noundef @.str.214)
  br label %101

101:                                              ; preds = %99, %96
  call void @llvm.lifetime.end.p0(i64 1, ptr %9) #10
  call void @llvm.lifetime.end.p0(i64 8, ptr %8) #10
  call void @llvm.lifetime.end.p0(i64 4, ptr %7) #10
  ret void
}