; Function Attrs: nounwind uwtable
define internal fastcc void @append_rel_pattern_raw_cte(ptr noundef nonnull %0, ptr noundef readonly captures(none) %1, ptr noundef %2) unnamed_addr #0 {
  %4 = getelementptr inbounds nuw i8, ptr %1, i64 8
  %5 = load i64, ptr %4, align 8
  %.not = icmp eq i64 %5, 0
  br i1 %.not, label %.critedge, label %.lr.ph

.lr.ph:                                           ; preds = %3, %28
  %6 = phi i64 [ %36, %28 ], [ 0, %3 ]
  %.043 = phi i32 [ %35, %28 ], [ 0, %3 ]
  %.03542 = phi i1 [ true, %28 ], [ false, %3 ]
  %.03641 = phi ptr [ @.str.168, %28 ], [ @.str.81, %3 ]
  %7 = load ptr, ptr %1, align 8
  %8 = getelementptr inbounds %struct.PatternInfo, ptr %7, i64 %6
  br i1 %.03542, label %10, label %9

9:                                                ; preds = %.lr.ph
  tail call void @appendPQExpBufferStr(ptr noundef nonnull %0, ptr noundef nonnull @.str.166) #11
  br label %10

10:                                               ; preds = %9, %.lr.ph
  tail call void (ptr, ptr, ...) @appendPQExpBuffer(ptr noundef nonnull %0, ptr noundef nonnull @.str.207, ptr noundef nonnull %.03641, i32 noundef %.043) #11
  %11 = getelementptr inbounds nuw i8, ptr %8, i64 8
  %12 = load ptr, ptr %11, align 8
  %13 = icmp eq ptr %12, null
  br i1 %13, label %14, label %15

14:                                               ; preds = %10
  tail call void @appendPQExpBufferStr(ptr noundef nonnull %0, ptr noundef nonnull @.str.208) #11
  br label %16

15:                                               ; preds = %10
  tail call void @appendStringLiteralConn(ptr noundef nonnull %0, ptr noundef nonnull %12, ptr noundef %2) #11
  br label %16

16:                                               ; preds = %15, %14
  tail call void @appendPQExpBufferStr(ptr noundef nonnull %0, ptr noundef nonnull @.str.209) #11
  %17 = getelementptr inbounds nuw i8, ptr %8, i64 16
  %18 = load ptr, ptr %17, align 8
  %19 = icmp eq ptr %18, null
  br i1 %19, label %20, label %21

20:                                               ; preds = %16
  tail call void @appendPQExpBufferStr(ptr noundef nonnull %0, ptr noundef nonnull @.str.208) #11
  br label %22

21:                                               ; preds = %16
  tail call void @appendStringLiteralConn(ptr noundef nonnull %0, ptr noundef nonnull %18, ptr noundef %2) #11
  br label %22

22:                                               ; preds = %21, %20
  tail call void @appendPQExpBufferStr(ptr noundef nonnull %0, ptr noundef nonnull @.str.209) #11
  %23 = getelementptr inbounds nuw i8, ptr %8, i64 24
  %24 = load ptr, ptr %23, align 8
  %25 = icmp eq ptr %24, null
  br i1 %25, label %26, label %27

26:                                               ; preds = %22
  tail call void @appendPQExpBufferStr(ptr noundef nonnull %0, ptr noundef nonnull @.str.208) #11
  br label %28

27:                                               ; preds = %22
  tail call void @appendStringLiteralConn(ptr noundef nonnull %0, ptr noundef nonnull %24, ptr noundef %2) #11
  br label %28

28:                                               ; preds = %27, %26
  %29 = getelementptr inbounds nuw i8, ptr %8, i64 32
  %30 = load i8, ptr %29, align 8, !range !6, !noundef !7
  %31 = trunc nuw i8 %30 to i1
  %.str.210..str.211 = select i1 %31, ptr @.str.210, ptr @.str.211
  tail call void @appendPQExpBufferStr(ptr noundef nonnull %0, ptr noundef nonnull %.str.210..str.211) #11
  %32 = getelementptr inbounds nuw i8, ptr %8, i64 33
  %33 = load i8, ptr %32, align 1, !range !6, !noundef !7
  %34 = trunc nuw i8 %33 to i1
  %.str.213.sink = select i1 %34, ptr @.str.212, ptr @.str.213
  tail call void @appendPQExpBufferStr(ptr noundef nonnull %0, ptr noundef nonnull %.str.213.sink) #11
  tail call void @appendPQExpBufferChar(ptr noundef nonnull %0, i8 noundef signext 41) #11
  %35 = add i32 %.043, 1
  %36 = sext i32 %35 to i64
  %37 = load i64, ptr %4, align 8
  %38 = icmp ugt i64 %37, %36
  br i1 %38, label %.lr.ph, label %._crit_edge, !llvm.loop !17

.critedge:                                        ; preds = %3
  tail call void @appendPQExpBufferStr(ptr noundef nonnull %0, ptr noundef nonnull @.str.214) #11
  br label %._crit_edge

._crit_edge:                                      ; preds = %28, %.critedge
  ret void
}